target datalayout = "e-m:e-p270:32:32-p271:32:32-p272:64:64-i64:64-i128:128-f80:128-n8:16:32:64-S128"
target triple = "x86_64-pc-linux-gnu"

%struct.AVFilterContext = type { ptr, ptr, ptr, ptr, ptr, i32, ptr, ptr, i32, ptr, ptr, i32, i32, ptr, ptr, ptr, ptr, i32, ptr, i32, i32 }
%struct.MidEqualizerContext = type { ptr, [2 x [4 x i32]], [2 x [4 x i32]], i32, i32, i32, [2 x ptr], ptr, %struct.FFFrameSync, ptr }
%struct.FFFrameSync = type { ptr, ptr, i32, %struct.AVRational, i64, ptr, ptr, i32, i32, i8, i8, ptr, i32, i32, i32, i32 }
%struct.AVRational = type { i32, i32 }
%struct.AVFilterLink = type { ptr, ptr, ptr, ptr, i32, i32, i32, i32, %struct.AVRational, i32, i32, i32, %struct.AVChannelLayout, %struct.AVRational, ptr, i32, %struct.AVFilterFormatsConfig, %struct.AVFilterFormatsConfig }
%struct.AVChannelLayout = type { i32, i32, %union.anon.1, ptr }
%union.anon.1 = type { i64 }
%struct.AVFilterFormatsConfig = type { ptr, ptr, ptr, ptr, ptr }
%struct.AVPixFmtDescriptor = type { ptr, i8, i8, i8, i64, [4 x %struct.AVComponentDescriptor], ptr }
%struct.AVComponentDescriptor = type { i32, i32, i32, i32, i32 }

; Function Attrs: nounwind uwtable
define internal i32 @config_input0(ptr noundef %0) #1 {
  %2 = alloca i32, align 4
  %3 = alloca ptr, align 8
  %4 = alloca ptr, align 8
  %5 = alloca ptr, align 8
  %6 = alloca ptr, align 8
  %7 = alloca i32, align 4
  %8 = alloca i32, align 4
  %9 = alloca i32, align 4
  store ptr %0, ptr %3, align 8, !tbaa !24
  call void @llvm.lifetime.start.p0(i64 8, ptr %4) #10
  %10 = load ptr, ptr %3, align 8, !tbaa !24
  %11 = getelementptr inbounds nuw %struct.AVFilterLink, ptr %10, i32 0, i32 2
  %12 = load ptr, ptr %11, align 8, !tbaa !26
  store ptr %12, ptr %4, align 8, !tbaa !4
  call void @llvm.lifetime.start.p0(i64 8, ptr %5) #10
  %13 = load ptr, ptr %4, align 8, !tbaa !4
  %14 = getelementptr inbounds nuw %struct.AVFilterContext, ptr %13, i32 0, i32 9
  %15 = load ptr, ptr %14, align 8, !tbaa !9
  store ptr %15, ptr %5, align 8, !tbaa !22
  call void @llvm.lifetime.start.p0(i64 8, ptr %6) #10
  %16 = load ptr, ptr %3, align 8, !tbaa !24
  %17 = getelementptr inbounds nuw %struct.AVFilterLink, ptr %16, i32 0, i32 5
  %18 = load i32, ptr %17, align 4, !tbaa !34
  %19 = call ptr @av_pix_fmt_desc_get(i32 noundef %18)
  store ptr %19, ptr %6, align 8, !tbaa !35
  call void @llvm.lifetime.start.p0(i64 4, ptr %7) #10
  call void @llvm.lifetime.start.p0(i64 4, ptr %8) #10
  %20 = load ptr, ptr %3, align 8, !tbaa !24
  %21 = getelementptr inbounds nuw %struct.AVFilterLink, ptr %20, i32 0, i32 5
  %22 = load i32, ptr %21, align 4, !tbaa !34
  %23 = call i32 @av_pix_fmt_count_planes(i32 noundef %22)
  %24 = load ptr, ptr %5, align 8, !tbaa !22
  %25 = getelementptr inbounds nuw %struct.MidEqualizerContext, ptr %24, i32 0, i32 3
  store i32 %23, ptr %25, align 8, !tbaa !37
  %26 = load ptr, ptr %6, align 8, !tbaa !35
  %27 = getelementptr inbounds nuw %struct.AVPixFmtDescriptor, ptr %26, i32 0, i32 2
  %28 = load i8, ptr %27, align 1, !tbaa !43
  %29 = zext i8 %28 to i32
  store i32 %29, ptr %8, align 4, !tbaa !45
  %30 = load ptr, ptr %6, align 8, !tbaa !35
  %31 = getelementptr inbounds nuw %struct.AVPixFmtDescriptor, ptr %30, i32 0, i32 3
  %32 = load i8, ptr %31, align 2, !tbaa !46
  %33 = zext i8 %32 to i32
  store i32 %33, ptr %7, align 4, !tbaa !45
  %34 = load ptr, ptr %3, align 8, !tbaa !24
  %35 = getelementptr inbounds nuw %struct.AVFilterLink, ptr %34, i32 0, i32 7
  %36 = load i32, ptr %35, align 4, !tbaa !47
  %37 = load ptr, ptr %5, align 8, !tbaa !22
  %38 = getelementptr inbounds nuw %struct.MidEqualizerContext, ptr %37, i32 0, i32 2
  %39 = getelementptr inbounds [2 x [4 x i32]], ptr %38, i64 0, i64 0
  %40 = getelementptr inbounds [4 x i32], ptr %39, i64 0, i64 3
  store i32 %36, ptr %40, align 4, !tbaa !45
  %41 = load ptr, ptr %5, align 8, !tbaa !22
  %42 = getelementptr inbounds nuw %struct.MidEqualizerContext, ptr %41, i32 0, i32 2
  %43 = getelementptr inbounds [2 x [4 x i32]], ptr %42, i64 0, i64 0
  %44 = getelementptr inbounds [4 x i32], ptr %43, i64 0, i64 0
  store i32 %36, ptr %44, align 8, !tbaa !45
  %45 = load ptr, ptr %3, align 8, !tbaa !24
  %46 = getelementptr inbounds nuw %struct.AVFilterLink, ptr %45, i32 0, i32 6
  %47 = load i32, ptr %46, align 8, !tbaa !48
  %48 = load ptr, ptr %5, align 8, !tbaa !22
  %49 = getelementptr inbounds nuw %struct.MidEqualizerContext, ptr %48, i32 0, i32 1
  %50 = getelementptr inbounds [2 x [4 x i32]], ptr %49, i64 0, i64 0
  %51 = getelementptr inbounds [4 x i32], ptr %50, i64 0, i64 3
  store i32 %47, ptr %51, align 4, !tbaa !45
  %52 = load ptr, ptr %5, align 8, !tbaa !22
  %53 = getelementptr inbounds nuw %struct.MidEqualizerContext, ptr %52, i32 0, i32 1
  %54 = getelementptr inbounds [2 x [4 x i32]], ptr %53, i64 0, i64 0
  %55 = getelementptr inbounds [4 x i32], ptr %54, i64 0, i64 0
  store i32 %47, ptr %55, align 8, !tbaa !45
  %56 = load i32, ptr %7, align 4, !tbaa !45
  %57 = call i1 @llvm.is.constant.i32(i32 %56)
  br i1 %57, label %66, label %58

58:                                               ; preds = %1
  %59 = load ptr, ptr %3, align 8, !tbaa !24
  %60 = getelementptr inbounds nuw %struct.AVFilterLink, ptr %59, i32 0, i32 7
  %61 = load i32, ptr %60, align 4, !tbaa !47
  %62 = sub nsw i32 0, %61
  %63 = load i32, ptr %7, align 4, !tbaa !45
  %64 = ashr i32 %62, %63
  %65 = sub nsw i32 0, %64
  br label %76

66:                                               ; preds = %1
  %67 = load ptr, ptr %3, align 8, !tbaa !24
  %68 = getelementptr inbounds nuw %struct.AVFilterLink, ptr %67, i32 0, i32 7
  %69 = load i32, ptr %68, align 4, !tbaa !47
  %70 = load i32, ptr %7, align 4, !tbaa !45
  %71 = shl i32 1, %70
  %72 = add nsw i32 %69, %71
  %73 = sub nsw i32 %72, 1
  %74 = load i32, ptr %7, align 4, !tbaa !45
  %75 = ashr i32 %73, %74
  br label %76

76:                                               ; preds = %66, %58
  %77 = phi i32 [ %65, %58 ], [ %75, %66 ]
  %78 = load ptr, ptr %5, align 8, !tbaa !22
  %79 = getelementptr inbounds nuw %struct.MidEqualizerContext, ptr %78, i32 0, i32 2
  %80 = getelementptr inbounds [2 x [4 x i32]], ptr %79, i64 0, i64 0
  %81 = getelementptr inbounds [4 x i32], ptr %80, i64 0, i64 2
  store i32 %77, ptr %81, align 8, !tbaa !45
  %82 = load ptr, ptr %5, align 8, !tbaa !22
  %83 = getelementptr inbounds nuw %struct.MidEqualizerContext, ptr %82, i32 0, i32 2
  %84 = getelementptr inbounds [2 x [4 x i32]], ptr %83, i64 0, i64 0
  %85 = getelementptr inbounds [4 x i32], ptr %84, i64 0, i64 1
  store i32 %77, ptr %85, align 4, !tbaa !45
  %86 = load i32, ptr %8, align 4, !tbaa !45
  %87 = call i1 @llvm.is.constant.i32(i32 %86)
  br i1 %87, label %96, label %88

88:                                               ; preds = %76
  %89 = load ptr, ptr %3, align 8, !tbaa !24
  %90 = getelementptr inbounds nuw %struct.AVFilterLink, ptr %89, i32 0, i32 6
  %91 = load i32, ptr %90, align 8, !tbaa !48
  %92 = sub nsw i32 0, %91
  %93 = load i32, ptr %8, align 4, !tbaa !45
  %94 = ashr i32 %92, %93
  %95 = sub nsw i32 0, %94
  br label %106

96:                                               ; preds = %76
  %97 = load ptr, ptr %3, align 8, !tbaa !24
  %98 = getelementptr inbounds nuw %struct.AVFilterLink, ptr %97, i32 0, i32 6
  %99 = load i32, ptr %98, align 8, !tbaa !48
  %100 = load i32, ptr %8, align 4, !tbaa !45
  %101 = shl i32 1, %100
  %102 = add nsw i32 %99, %101
  %103 = sub nsw i32 %102, 1
  %104 = load i32, ptr %8, align 4, !tbaa !45
  %105 = ashr i32 %103, %104
  br label %106

106:                                              ; preds = %96, %88
  %107 = phi i32 [ %95, %88 ], [ %105, %96 ]
  %108 = load ptr, ptr %5, align 8, !tbaa !22
  %109 = getelementptr inbounds nuw %struct.MidEqualizerContext, ptr %108, i32 0, i32 1
  %110 = getelementptr inbounds [2 x [4 x i32]], ptr %109, i64 0, i64 0
  %111 = getelementptr inbounds [4 x i32], ptr %110, i64 0, i64 2
  store i32 %107, ptr %111, align 8, !tbaa !45
  %112 = load ptr, ptr %5, align 8, !tbaa !22
  %113 = getelementptr inbounds nuw %struct.MidEqualizerContext, ptr %112, i32 0, i32 1
  %114 = getelementptr inbounds [2 x [4 x i32]], ptr %113, i64 0, i64 0
  %115 = getelementptr inbounds [4 x i32], ptr %114, i64 0, i64 1
  store i32 %107, ptr %115, align 4, !tbaa !45
  %116 = load ptr, ptr %6, align 8, !tbaa !35
  %117 = getelementptr inbounds nuw %struct.AVPixFmtDescriptor, ptr %116, i32 0, i32 5
  %118 = getelementptr inbounds [4 x %struct.AVComponentDescriptor], ptr %117, i64 0, i64 0
  %119 = getelementptr inbounds nuw %struct.AVComponentDescriptor, ptr %118, i32 0, i32 4
  %120 = load i32, ptr %119, align 8, !tbaa !49
  %121 = shl i32 1, %120
  %122 = load ptr, ptr %5, align 8, !tbaa !22
  %123 = getelementptr inbounds nuw %struct.MidEqualizerContext, ptr %122, i32 0, i32 5
  store i32 %121, ptr %123, align 8, !tbaa !51
  %124 = load ptr, ptr %5, align 8, !tbaa !22
  %125 = getelementptr inbounds nuw %struct.MidEqualizerContext, ptr %124, i32 0, i32 5
  %126 = load i32, ptr %125, align 8, !tbaa !51
  %127 = sext i32 %126 to i64
  %128 = call noalias ptr @av_calloc(i64 noundef %127, i64 noundef 4)
  %129 = load ptr, ptr %5, align 8, !tbaa !22
  %130 = getelementptr inbounds nuw %struct.MidEqualizerContext, ptr %129, i32 0, i32 6
  %131 = getelementptr inbounds [2 x ptr], ptr %130, i64 0, i64 0
  store ptr %128, ptr %131, align 8, !tbaa !52
  %132 = load ptr, ptr %5, align 8, !tbaa !22
  %133 = getelementptr inbounds nuw %struct.MidEqualizerContext, ptr %132, i32 0, i32 5
  %134 = load i32, ptr %133, align 8, !tbaa !51
  %135 = sext i32 %134 to i64
  %136 = call noalias ptr @av_calloc(i64 noundef %135, i64 noundef 4)
  %137 = load ptr, ptr %5, align 8, !tbaa !22
  %138 = getelementptr inbounds nuw %struct.MidEqualizerContext, ptr %137, i32 0, i32 6
  %139 = getelementptr inbounds [2 x ptr], ptr %138, i64 0, i64 1
  store ptr %136, ptr %139, align 8, !tbaa !52
  %140 = load ptr, ptr %5, align 8, !tbaa !22
  %141 = getelementptr inbounds nuw %struct.MidEqualizerContext, ptr %140, i32 0, i32 5
  %142 = load i32, ptr %141, align 8, !tbaa !51
  %143 = sext i32 %142 to i64
  %144 = call noalias ptr @av_calloc(i64 noundef %143, i64 noundef 4)
  %145 = load ptr, ptr %5, align 8, !tbaa !22
  %146 = getelementptr inbounds nuw %struct.MidEqualizerContext, ptr %145, i32 0, i32 7
  store ptr %144, ptr %146, align 8, !tbaa !54
  %147 = load ptr, ptr %5, align 8, !tbaa !22
  %148 = getelementptr inbounds nuw %struct.MidEqualizerContext, ptr %147, i32 0, i32 6
  %149 = getelementptr inbounds [2 x ptr], ptr %148, i64 0, i64 0
  %150 = load ptr, ptr %149, align 8, !tbaa !52
  %151 = icmp ne ptr %150, null
  br i1 %151, label %152, label %163

152:                                              ; preds = %106
  %153 = load ptr, ptr %5, align 8, !tbaa !22
  %154 = getelementptr inbounds nuw %struct.MidEqualizerContext, ptr %153, i32 0, i32 6
  %155 = getelementptr inbounds [2 x ptr], ptr %154, i64 0, i64 1
  %156 = load ptr, ptr %155, align 8, !tbaa !52
  %157 = icmp ne ptr %156, null
  br i1 %157, label %158, label %163

158:                                              ; preds = %152
  %159 = load ptr, ptr %5, align 8, !tbaa !22
  %160 = getelementptr inbounds nuw %struct.MidEqualizerContext, ptr %159, i32 0, i32 7
  %161 = load ptr, ptr %160, align 8, !tbaa !54
  %162 = icmp ne ptr %161, null
  br i1 %162, label %164, label %163

163:                                              ; preds = %158, %152, %106
  store i32 -12, ptr %2, align 4
  store i32 1, ptr %9, align 4
  br label %176

164:                                              ; preds = %158
  %165 = load ptr, ptr %5, align 8, !tbaa !22
  %166 = getelementptr inbounds nuw %struct.MidEqualizerContext, ptr %165, i32 0, i32 5
  %167 = load i32, ptr %166, align 8, !tbaa !51
  %168 = icmp eq i32 %167, 256
  br i1 %168, label %169, label %172

169:                                              ; preds = %164
  %170 = load ptr, ptr %5, align 8, !tbaa !22
  %171 = getelementptr inbounds nuw %struct.MidEqualizerContext, ptr %170, i32 0, i32 9
  store ptr @midequalizer8, ptr %171, align 8, !tbaa !55
  br label %175

172:                                              ; preds = %164
  %173 = load ptr, ptr %5, align 8, !tbaa !22
  %174 = getelementptr inbounds nuw %struct.MidEqualizerContext, ptr %173, i32 0, i32 9
  store ptr @midequalizer16, ptr %174, align 8, !tbaa !55
  br label %175

175:                                              ; preds = %172, %169
  store i32 0, ptr %2, align 4
  store i32 1, ptr %9, align 4
  br label %176

176:                                              ; preds = %175, %163
  call void @llvm.lifetime.end.p0(i64 4, ptr %8) #10
  call void @llvm.lifetime.end.p0(i64 4, ptr %7) #10
  call void @llvm.lifetime.end.p0(i64 8, ptr %6) #10
  call void @llvm.lifetime.end.p0(i64 8, ptr %5) #10
  call void @llvm.lifetime.end.p0(i64 8, ptr %4) #10
  %177 = load i32, ptr %2, align 4
  ret i32 %177
}