; Function Attrs: nounwind uwtable
define internal range(i32 -12, 1) i32 @config_input0(ptr noundef readonly captures(none) %0) #1 {
  %2 = getelementptr inbounds nuw i8, ptr %0, i64 16
  %3 = load ptr, ptr %2, align 8, !tbaa !20
  %4 = getelementptr inbounds nuw i8, ptr %3, i64 72
  %5 = load ptr, ptr %4, align 8, !tbaa !4
  %6 = getelementptr inbounds nuw i8, ptr %0, i64 36
  %7 = load i32, ptr %6, align 4, !tbaa !29
  %8 = tail call ptr @av_pix_fmt_desc_get(i32 noundef %7) #7
  %9 = load i32, ptr %6, align 4, !tbaa !29
  %10 = tail call i32 @av_pix_fmt_count_planes(i32 noundef %9) #7
  %11 = getelementptr inbounds nuw i8, ptr %5, i64 72
  store i32 %10, ptr %11, align 8, !tbaa !30
  %12 = getelementptr inbounds nuw i8, ptr %8, i64 9
  %13 = load i8, ptr %12, align 1, !tbaa !36
  %14 = zext nneg i8 %13 to i32
  %15 = getelementptr inbounds nuw i8, ptr %8, i64 10
  %16 = load i8, ptr %15, align 2, !tbaa !38
  %17 = getelementptr inbounds nuw i8, ptr %0, i64 44
  %18 = load i32, ptr %17, align 4, !tbaa !39
  %19 = getelementptr inbounds nuw i8, ptr %5, i64 40
  %20 = getelementptr inbounds nuw i8, ptr %5, i64 52
  store i32 %18, ptr %20, align 4, !tbaa !40
  store i32 %18, ptr %19, align 8, !tbaa !40
  %21 = getelementptr inbounds nuw i8, ptr %0, i64 40
  %22 = load i32, ptr %21, align 8, !tbaa !41
  %23 = getelementptr inbounds nuw i8, ptr %5, i64 8
  %24 = getelementptr inbounds nuw i8, ptr %5, i64 20
  store i32 %22, ptr %24, align 4, !tbaa !40
  store i32 %22, ptr %23, align 8, !tbaa !40
  %25 = load i32, ptr %17, align 4, !tbaa !39
  %26 = sub nsw i32 0, %25
  %27 = zext nneg i8 %16 to i32
  %28 = ashr i32 %26, %27
  %29 = sub nsw i32 0, %28
  %30 = getelementptr inbounds nuw i8, ptr %5, i64 48
  store i32 %29, ptr %30, align 8, !tbaa !40
  %31 = getelementptr inbounds nuw i8, ptr %5, i64 44
  store i32 %29, ptr %31, align 4, !tbaa !40
  %32 = load i32, ptr %21, align 8, !tbaa !41
  %33 = sub nsw i32 0, %32
  %34 = ashr i32 %33, %14
  %35 = sub nsw i32 0, %34
  %36 = getelementptr inbounds nuw i8, ptr %5, i64 16
  store i32 %35, ptr %36, align 8, !tbaa !40
  %37 = getelementptr inbounds nuw i8, ptr %5, i64 12
  store i32 %35, ptr %37, align 4, !tbaa !40
  %38 = getelementptr inbounds nuw i8, ptr %8, i64 40
  %39 = load i32, ptr %38, align 8, !tbaa !42
  %40 = shl nuw i32 1, %39
  %41 = getelementptr inbounds nuw i8, ptr %5, i64 80
  store i32 %40, ptr %41, align 8, !tbaa !44
  %42 = sext i32 %40 to i64
  %43 = tail call noalias ptr @av_calloc(i64 noundef %42, i64 noundef 4) #7
  %44 = getelementptr inbounds nuw i8, ptr %5, i64 88
  store ptr %43, ptr %44, align 8, !tbaa !45
  %45 = load i32, ptr %41, align 8, !tbaa !44
  %46 = sext i32 %45 to i64
  %47 = tail call noalias ptr @av_calloc(i64 noundef %46, i64 noundef 4) #7
  %48 = getelementptr inbounds nuw i8, ptr %5, i64 96
  store ptr %47, ptr %48, align 8, !tbaa !45
  %49 = load i32, ptr %41, align 8, !tbaa !44
  %50 = sext i32 %49 to i64
  %51 = tail call noalias ptr @av_calloc(i64 noundef %50, i64 noundef 4) #7
  %52 = getelementptr inbounds nuw i8, ptr %5, i64 104
  store ptr %51, ptr %52, align 8, !tbaa !47
  %53 = load ptr, ptr %44, align 8, !tbaa !45
  %.not = icmp eq ptr %53, null
  br i1 %.not, label %59, label %54

54:                                               ; preds = %1
  %55 = load ptr, ptr %48, align 8, !tbaa !45
  %.not43 = icmp eq ptr %55, null
  %.not44 = icmp eq ptr %51, null
  %or.cond = select i1 %.not43, i1 true, i1 %.not44
  br i1 %or.cond, label %59, label %.sink.split

.sink.split:                                      ; preds = %54
  %56 = load i32, ptr %41, align 8, !tbaa !44
  %57 = icmp eq i32 %56, 256
  %58 = getelementptr inbounds nuw i8, ptr %5, i64 208
  %midequalizer8.midequalizer16 = select i1 %57, ptr @midequalizer8, ptr @midequalizer16
  store ptr %midequalizer8.midequalizer16, ptr %58, align 8, !tbaa !48
  br label %59

59:                                               ; preds = %.sink.split, %1, %54
  %.0 = phi i32 [ -12, %54 ], [ -12, %1 ], [ 0, %.sink.split ]
  ret i32 %.0
}